target datalayout = "e-m:e-p270:32:32-p271:32:32-p272:64:64-i64:64-i128:128-f80:128-n8:16:32:64-S128"
target triple = "x86_64-pc-linux-gnu"

%"class.llvm::StringRef" = type { ptr, i64 }
%"class.llvm::SmallVectorBase" = type { ptr, i32, i32 }
%"class.llvm::gi::Pattern" = type { ptr, i32, %"class.llvm::StringRef" }
%"class.llvm::function_ref.64" = type { ptr, i64 }
%"class.llvm::gi::OperandTable" = type { %"class.llvm::StringMap.66" }
%"class.llvm::StringMap.66" = type { %"class.llvm::StringMapImpl" }
%"class.llvm::StringMapImpl" = type { ptr, i32, i32, i32, i32 }
%"class.llvm::gi::PatFrag" = type { ptr, i32, %"class.llvm::SmallVector.111", %"class.llvm::SmallVector.116" }
%"class.llvm::SmallVector.111" = type { %"class.llvm::SmallVectorImpl.112", %"struct.llvm::SmallVectorStorage.115" }
%"class.llvm::SmallVectorImpl.112" = type { %"class.llvm::SmallVectorTemplateBase.113" }
%"class.llvm::SmallVectorTemplateBase.113" = type { %"class.llvm::SmallVectorTemplateCommon.114" }
%"class.llvm::SmallVectorTemplateCommon.114" = type { %"class.llvm::SmallVectorBase" }
%"struct.llvm::SmallVectorStorage.115" = type { [96 x i8] }
%"class.llvm::SmallVector.116" = type { %"class.llvm::SmallVectorImpl.117", %"struct.llvm::SmallVectorStorage.120" }
%"class.llvm::SmallVectorImpl.117" = type { %"class.llvm::SmallVectorTemplateBase.118" }
%"class.llvm::SmallVectorTemplateBase.118" = type { %"class.llvm::SmallVectorTemplateCommon.119" }
%"class.llvm::SmallVectorTemplateCommon.119" = type { %"class.llvm::SmallVectorBase" }
%"struct.llvm::SmallVectorStorage.120" = type { [144 x i8] }
%"struct.llvm::gi::PatFrag::Alternative" = type { %"class.llvm::gi::OperandTable", %"class.llvm::SmallVector.139" }
%"class.llvm::SmallVector.139" = type { %"class.llvm::SmallVectorImpl.140", %"struct.llvm::SmallVectorStorage.143" }
%"class.llvm::SmallVectorImpl.140" = type { %"class.llvm::SmallVectorTemplateBase.141" }
%"class.llvm::SmallVectorTemplateBase.141" = type { %"class.llvm::SmallVectorTemplateCommon.142" }
%"class.llvm::SmallVectorTemplateCommon.142" = type { %"class.llvm::SmallVectorBase" }
%"struct.llvm::SmallVectorStorage.143" = type { [32 x i8] }
%"class.std::unique_ptr.144" = type { %"struct.std::__uniq_ptr_data.145" }
%"struct.std::__uniq_ptr_data.145" = type { %"class.std::__uniq_ptr_impl.146" }
%"class.std::__uniq_ptr_impl.146" = type { %"class.std::tuple.147" }
%"class.std::tuple.147" = type { %"struct.std::_Tuple_impl.148" }
%"struct.std::_Tuple_impl.148" = type { %"struct.std::_Head_base.151" }
%"struct.std::_Head_base.151" = type { ptr }
%class.anon.157 = type { ptr, ptr }

; Function Attrs: mustprogress nounwind uwtable
define linkonce_odr hidden noundef i32 @_ZNK4llvm2gi7Pattern7getKindEv(ptr noundef nonnull align 8 dereferenceable(32) %0) #0 comdat align 2 {
  %2 = alloca ptr, align 8
  store ptr %0, ptr %2, align 8
  %3 = load ptr, ptr %2, align 8
  %4 = getelementptr inbounds nuw %"class.llvm::gi::Pattern", ptr %3, i32 0, i32 1
  %5 = load i32, ptr %4, align 8
  ret i32 %5
}

; Function Attrs: mustprogress nounwind uwtable
define linkonce_odr hidden noundef zeroext i1 @_ZN4llvm2gi18InstructionPattern7classofEPKNS0_7PatternE(ptr noundef %0) #0 comdat align 2 {
  %2 = alloca ptr, align 8
  store ptr %0, ptr %2, align 8
  %3 = load ptr, ptr %2, align 8
  %4 = call noundef i32 @_ZNK4llvm2gi7Pattern7getKindEv(ptr noundef nonnull align 8 dereferenceable(32) %3)
  %5 = icmp eq i32 %4, 2
  br i1 %5, label %14, label %6

6:                                                ; preds = %1
  %7 = load ptr, ptr %2, align 8
  %8 = call noundef i32 @_ZNK4llvm2gi7Pattern7getKindEv(ptr noundef nonnull align 8 dereferenceable(32) %7)
  %9 = icmp eq i32 %8, 3
  br i1 %9, label %14, label %10

10:                                               ; preds = %6
  %11 = load ptr, ptr %2, align 8
  %12 = call noundef i32 @_ZNK4llvm2gi7Pattern7getKindEv(ptr noundef nonnull align 8 dereferenceable(32) %11)
  %13 = icmp eq i32 %12, 4
  br label %14

14:                                               ; preds = %10, %6, %1
  %15 = phi i1 [ true, %6 ], [ true, %1 ], [ %13, %10 ]
  ret i1 %15
}

; Function Attrs: mustprogress nounwind uwtable
define linkonce_odr hidden noundef zeroext i1 @_ZN4llvm8isa_implINS_2gi18InstructionPatternENS1_7PatternEvE4doitERKS3_(ptr noundef nonnull align 8 dereferenceable(32) %0) #0 comdat align 2 {
  %2 = alloca ptr, align 8
  store ptr %0, ptr %2, align 8
  %3 = load ptr, ptr %2, align 8
  %4 = call noundef zeroext i1 @_ZN4llvm2gi18InstructionPattern7classofEPKNS0_7PatternE(ptr noundef %3)
  ret i1 %4
}

; Function Attrs: mustprogress nounwind uwtable
define linkonce_odr hidden noundef zeroext i1 @_ZN4llvm11isa_impl_clINS_2gi18InstructionPatternEPKNS1_7PatternEE4doitES5_(ptr noundef %0) #0 comdat align 2 {
  %2 = alloca ptr, align 8
  store ptr %0, ptr %2, align 8
  %3 = load ptr, ptr %2, align 8
  %4 = call noundef zeroext i1 @_ZN4llvm8isa_implINS_2gi18InstructionPatternENS1_7PatternEvE4doitERKS3_(ptr noundef nonnull align 8 dereferenceable(32) %3)
  ret i1 %4
}

; Function Attrs: mustprogress nounwind uwtable
define linkonce_odr hidden noundef nonnull align 8 dereferenceable(8) ptr @_ZN4llvm13simplify_typeIPNS_2gi7PatternEE18getSimplifiedValueERS3_(ptr noundef nonnull align 8 dereferenceable(8) %0) #0 comdat align 2 {
  %2 = alloca ptr, align 8
  store ptr %0, ptr %2, align 8
  %3 = load ptr, ptr %2, align 8
  ret ptr %3
}

; Function Attrs: mustprogress nounwind uwtable
define linkonce_odr hidden noundef nonnull align 8 dereferenceable(8) ptr @_ZNSt10_Head_baseILm0EPN4llvm2gi7PatternELb0EE7_M_headERKS4_(ptr noundef nonnull align 8 dereferenceable(8) %0) #0 comdat align 2 {
  %2 = alloca ptr, align 8
  store ptr %0, ptr %2, align 8
  %3 = load ptr, ptr %2, align 8
  %4 = getelementptr inbounds nuw %"struct.std::_Head_base.151", ptr %3, i32 0, i32 0
  ret ptr %4
}

; Function Attrs: mustprogress nounwind uwtable
define linkonce_odr hidden noundef zeroext i1 @_ZN4llvm13isa_impl_wrapINS_2gi18InstructionPatternEPKNS1_7PatternES5_E4doitERKS5_(ptr noundef nonnull align 8 dereferenceable(8) %0) #0 comdat align 2 {
  %2 = alloca ptr, align 8
  store ptr %0, ptr %2, align 8
  %3 = load ptr, ptr %2, align 8
  %4 = load ptr, ptr %3, align 8
  %5 = call noundef zeroext i1 @_ZN4llvm11isa_impl_clINS_2gi18InstructionPatternEPKNS1_7PatternEE4doitES5_(ptr noundef %4)
  ret i1 %5
}

; Function Attrs: mustprogress nounwind uwtable
define linkonce_odr hidden noundef ptr @_ZN4llvm13simplify_typeIKPNS_2gi7PatternEE18getSimplifiedValueERS4_(ptr noundef nonnull align 8 dereferenceable(8) %0) #0 comdat align 2 {
  %2 = alloca ptr, align 8
  store ptr %0, ptr %2, align 8
  %3 = load ptr, ptr %2, align 8
  %4 = call noundef nonnull align 8 dereferenceable(8) ptr @_ZN4llvm13simplify_typeIPNS_2gi7PatternEE18getSimplifiedValueERS3_(ptr noundef nonnull align 8 dereferenceable(8) %3)
  %5 = load ptr, ptr %4, align 8
  ret ptr %5
}

; Function Attrs: mustprogress nounwind uwtable
define linkonce_odr hidden noundef nonnull align 8 dereferenceable(8) ptr @_ZNSt11_Tuple_implILm0EJPN4llvm2gi7PatternESt14default_deleteIS2_EEE7_M_headERKS6_(ptr noundef nonnull align 8 dereferenceable(8) %0) #0 comdat align 2 {
  %2 = alloca ptr, align 8
  store ptr %0, ptr %2, align 8
  %3 = load ptr, ptr %2, align 8
  %4 = call noundef nonnull align 8 dereferenceable(8) ptr @_ZNSt10_Head_baseILm0EPN4llvm2gi7PatternELb0EE7_M_headERKS4_(ptr noundef nonnull align 8 dereferenceable(8) %3) #10
  ret ptr %4
}

; Function Attrs: mustprogress nounwind uwtable
define linkonce_odr hidden noundef ptr @_ZN4llvm16cast_convert_valINS_2gi18InstructionPatternEPNS1_7PatternES4_E4doitEPKS3_(ptr noundef %0) #0 comdat align 2 {
  %2 = alloca ptr, align 8
  store ptr %0, ptr %2, align 8
  %3 = load ptr, ptr %2, align 8
  ret ptr %3
}

; Function Attrs: mustprogress nounwind uwtable
define linkonce_odr hidden noundef zeroext i1 @_ZN4llvm13isa_impl_wrapINS_2gi18InstructionPatternEKPNS1_7PatternEPKS3_E4doitERS5_(ptr noundef nonnull align 8 dereferenceable(8) %0) #0 comdat align 2 {
  %2 = alloca ptr, align 8
  %3 = alloca ptr, align 8
  store ptr %0, ptr %2, align 8
  %4 = load ptr, ptr %2, align 8
  %5 = call noundef ptr @_ZN4llvm13simplify_typeIKPNS_2gi7PatternEE18getSimplifiedValueERS4_(ptr noundef nonnull align 8 dereferenceable(8) %4)
  store ptr %5, ptr %3, align 8
  %6 = call noundef zeroext i1 @_ZN4llvm13isa_impl_wrapINS_2gi18InstructionPatternEPKNS1_7PatternES5_E4doitERKS5_(ptr noundef nonnull align 8 dereferenceable(8) %3)
  ret i1 %6
}

; Function Attrs: mustprogress nounwind uwtable
define linkonce_odr noundef nonnull align 8 dereferenceable(8) ptr @_ZSt12__get_helperILm0EPN4llvm2gi7PatternEJSt14default_deleteIS2_EEERKT0_RKSt11_Tuple_implIXT_EJS6_DpT1_EE(ptr noundef nonnull align 8 dereferenceable(8) %0) #0 comdat {
  %2 = alloca ptr, align 8
  store ptr %0, ptr %2, align 8
  %3 = load ptr, ptr %2, align 8
  %4 = call noundef nonnull align 8 dereferenceable(8) ptr @_ZNSt11_Tuple_implILm0EJPN4llvm2gi7PatternESt14default_deleteIS2_EEE7_M_headERKS6_(ptr noundef nonnull align 8 dereferenceable(8) %3) #10
  ret ptr %4
}

; Function Attrs: mustprogress nounwind uwtable
define linkonce_odr hidden noundef ptr @_ZN4llvm8CastInfoINS_2gi18InstructionPatternEPNS1_7PatternEvE6doCastERKS4_(ptr noundef nonnull align 8 dereferenceable(8) %0) #0 comdat align 2 {
  %2 = alloca ptr, align 8
  store ptr %0, ptr %2, align 8
  %3 = load ptr, ptr %2, align 8
  %4 = load ptr, ptr %3, align 8
  %5 = call noundef ptr @_ZN4llvm16cast_convert_valINS_2gi18InstructionPatternEPNS1_7PatternES4_E4doitEPKS3_(ptr noundef %4)
  ret ptr %5
}

; Function Attrs: mustprogress nounwind uwtable
define linkonce_odr hidden noundef ptr @_ZN4llvm8CastInfoINS_2gi18InstructionPatternEPNS1_7PatternEvE10castFailedEv() #0 comdat align 2 {
  ret ptr null
}

; Function Attrs: mustprogress nounwind uwtable
define linkonce_odr hidden noundef zeroext i1 @_ZN4llvm14CastIsPossibleINS_2gi18InstructionPatternEPNS1_7PatternEvE10isPossibleERKS4_(ptr noundef nonnull align 8 dereferenceable(8) %0) #0 comdat align 2 {
  %2 = alloca ptr, align 8
  store ptr %0, ptr %2, align 8
  %3 = load ptr, ptr %2, align 8
  %4 = call noundef zeroext i1 @_ZN4llvm13isa_impl_wrapINS_2gi18InstructionPatternEKPNS1_7PatternEPKS3_E4doitERS5_(ptr noundef nonnull align 8 dereferenceable(8) %3)
  ret i1 %4
}

; Function Attrs: mustprogress nounwind uwtable
define linkonce_odr noundef nonnull align 8 dereferenceable(8) ptr @_ZSt3getILm0EJPN4llvm2gi7PatternESt14default_deleteIS2_EEERKNSt13tuple_elementIXT_ESt5tupleIJDpT0_EEE4typeERKSA_(ptr noundef nonnull align 8 dereferenceable(8) %0) #0 comdat {
  %2 = alloca ptr, align 8
  store ptr %0, ptr %2, align 8
  %3 = load ptr, ptr %2, align 8
  %4 = call noundef nonnull align 8 dereferenceable(8) ptr @_ZSt12__get_helperILm0EPN4llvm2gi7PatternEJSt14default_deleteIS2_EEERKT0_RKSt11_Tuple_implIXT_EJS6_DpT1_EE(ptr noundef nonnull align 8 dereferenceable(8) %3) #10
  ret ptr %4
}

; Function Attrs: mustprogress nounwind uwtable
define linkonce_odr hidden noundef ptr @_ZN4llvm8CastInfoINS_2gi18InstructionPatternEPNS1_7PatternEvE16doCastIfPossibleERKS4_(ptr noundef nonnull align 8 dereferenceable(8) %0) #0 comdat align 2 {
  %2 = alloca ptr, align 8
  %3 = alloca ptr, align 8
  store ptr %0, ptr %3, align 8
  %4 = load ptr, ptr %3, align 8
  %5 = call noundef zeroext i1 @_ZN4llvm14CastIsPossibleINS_2gi18InstructionPatternEPNS1_7PatternEvE10isPossibleERKS4_(ptr noundef nonnull align 8 dereferenceable(8) %4)
  br i1 %5, label %8, label %6

6:                                                ; preds = %1
  %7 = call noundef ptr @_ZN4llvm8CastInfoINS_2gi18InstructionPatternEPNS1_7PatternEvE10castFailedEv()
  store ptr %7, ptr %2, align 8
  br label %11

8:                                                ; preds = %1
  %9 = load ptr, ptr %3, align 8
  %10 = call noundef ptr @_ZN4llvm8CastInfoINS_2gi18InstructionPatternEPNS1_7PatternEvE6doCastERKS4_(ptr noundef nonnull align 8 dereferenceable(8) %9)
  store ptr %10, ptr %2, align 8
  br label %11

11:                                               ; preds = %8, %6
  %12 = load ptr, ptr %2, align 8
  ret ptr %12
}

; Function Attrs: mustprogress nounwind uwtable
define linkonce_odr hidden noundef ptr @_ZNKSt15__uniq_ptr_implIN4llvm2gi7PatternESt14default_deleteIS2_EE6_M_ptrEv(ptr noundef nonnull align 8 dereferenceable(8) %0) #0 comdat align 2 {
  %2 = alloca ptr, align 8
  store ptr %0, ptr %2, align 8
  %3 = load ptr, ptr %2, align 8
  %4 = getelementptr inbounds nuw %"class.std::__uniq_ptr_impl.146", ptr %3, i32 0, i32 0
  %5 = call noundef nonnull align 8 dereferenceable(8) ptr @_ZSt3getILm0EJPN4llvm2gi7PatternESt14default_deleteIS2_EEERKNSt13tuple_elementIXT_ESt5tupleIJDpT0_EEE4typeERKSA_(ptr noundef nonnull align 8 dereferenceable(8) %4) #10
  %6 = load ptr, ptr %5, align 8
  ret ptr %6
}

; Function Attrs: mustprogress nounwind uwtable
define internal void @"_ZN4llvm12function_refIFvNS_9StringRefEEEC2IRKZNS_2gi7PatFrag19buildOperandsTablesEvE3$_0EEOT_PNSt9enable_ifIXntsr3std7is_sameINS_12remove_cvrefISA_E4typeES3_EE5valueEvE4typeEPNSC_IXooL_ZNSt17integral_constantIbLb1EE5valueEEsr3std14is_convertibleIDTclclsr3stdE7declvalISA_EEclL_ZSt7declvalIS1_EDTcl9__declvalISA_ELi0EEEvEEEEvEE5valueEvE4typeE"(ptr noundef nonnull align 8 dereferenceable(16) %0, ptr noundef nonnull align 8 dereferenceable(16) %1, ptr noundef %2, ptr noundef %3) unnamed_addr #0 align 2 {
  %5 = alloca ptr, align 8
  %6 = alloca ptr, align 8
  %7 = alloca ptr, align 8
  %8 = alloca ptr, align 8
  store ptr %0, ptr %5, align 8
  store ptr %1, ptr %6, align 8
  store ptr %2, ptr %7, align 8
  store ptr %3, ptr %8, align 8
  %9 = load ptr, ptr %5, align 8
  %10 = getelementptr inbounds nuw %"class.llvm::function_ref.64", ptr %9, i32 0, i32 0
  store ptr @"_ZN4llvm12function_refIFvNS_9StringRefEEE11callback_fnIKZNS_2gi7PatFrag19buildOperandsTablesEvE3$_0EEvlS1_", ptr %10, align 8
  %11 = getelementptr inbounds nuw %"class.llvm::function_ref.64", ptr %9, i32 0, i32 1
  %12 = load ptr, ptr %6, align 8
  %13 = ptrtoint ptr %12 to i64
  store i64 %13, ptr %11, align 8
  ret void
}

; Function Attrs: mustprogress nounwind uwtable
define linkonce_odr hidden noundef ptr @_ZN4llvm8dyn_castINS_2gi18InstructionPatternENS1_7PatternEEEDcPT0_(ptr noundef %0) #0 comdat {
  %2 = alloca ptr, align 8
  store ptr %0, ptr %2, align 8
  %3 = call noundef ptr @_ZN4llvm8CastInfoINS_2gi18InstructionPatternEPNS1_7PatternEvE16doCastIfPossibleERKS4_(ptr noundef nonnull align 8 dereferenceable(8) %2)
  ret ptr %3
}

; Function Attrs: mustprogress nounwind uwtable
define linkonce_odr hidden noundef ptr @_ZNKSt10unique_ptrIN4llvm2gi7PatternESt14default_deleteIS2_EE3getEv(ptr noundef nonnull align 8 dereferenceable(8) %0) #0 comdat align 2 {
  %2 = alloca ptr, align 8
  store ptr %0, ptr %2, align 8
  %3 = load ptr, ptr %2, align 8
  %4 = getelementptr inbounds nuw %"class.std::unique_ptr.144", ptr %3, i32 0, i32 0
  %5 = call noundef ptr @_ZNKSt15__uniq_ptr_implIN4llvm2gi7PatternESt14default_deleteIS2_EE6_M_ptrEv(ptr noundef nonnull align 8 dereferenceable(8) %4) #10
  ret ptr %5
}

; Function Attrs: mustprogress nounwind uwtable
define linkonce_odr hidden noundef ptr @_ZN4llvm25SmallVectorTemplateCommonISt10unique_ptrINS_2gi7PatternESt14default_deleteIS3_EEvE3endEv(ptr noundef nonnull align 8 dereferenceable(16) %0) #0 comdat align 2 {
  %2 = alloca ptr, align 8
  store ptr %0, ptr %2, align 8
  %3 = load ptr, ptr %2, align 8
  %4 = call noundef ptr @_ZN4llvm25SmallVectorTemplateCommonISt10unique_ptrINS_2gi7PatternESt14default_deleteIS3_EEvE5beginEv(ptr noundef nonnull align 8 dereferenceable(16) %3)
  %5 = call noundef i64 @_ZNK4llvm15SmallVectorBaseIjE4sizeEv(ptr noundef nonnull align 8 dereferenceable(16) %3)
  %6 = getelementptr inbounds %"class.std::unique_ptr.144", ptr %4, i64 %5
  ret ptr %6
}

; Function Attrs: mustprogress nounwind uwtable
define linkonce_odr hidden noundef ptr @_ZN4llvm25SmallVectorTemplateCommonISt10unique_ptrINS_2gi7PatternESt14default_deleteIS3_EEvE5beginEv(ptr noundef nonnull align 8 dereferenceable(16) %0) #0 comdat align 2 {
  %2 = alloca ptr, align 8
  store ptr %0, ptr %2, align 8
  %3 = load ptr, ptr %2, align 8
  %4 = getelementptr inbounds nuw %"class.llvm::SmallVectorBase", ptr %3, i32 0, i32 0
  %5 = load ptr, ptr %4, align 8
  ret ptr %5
}

; Function Attrs: mustprogress nounwind uwtable
define linkonce_odr hidden noundef ptr @_ZN4llvm25SmallVectorTemplateCommonINS_2gi7PatFrag11AlternativeEvE3endEv(ptr noundef nonnull align 8 dereferenceable(16) %0) #0 comdat align 2 {
  %2 = alloca ptr, align 8
  store ptr %0, ptr %2, align 8
  %3 = load ptr, ptr %2, align 8
  %4 = call noundef ptr @_ZN4llvm25SmallVectorTemplateCommonINS_2gi7PatFrag11AlternativeEvE5beginEv(ptr noundef nonnull align 8 dereferenceable(16) %3)
  %5 = call noundef i64 @_ZNK4llvm15SmallVectorBaseIjE4sizeEv(ptr noundef nonnull align 8 dereferenceable(16) %3)
  %6 = getelementptr inbounds %"struct.llvm::gi::PatFrag::Alternative", ptr %4, i64 %5
  ret ptr %6
}

; Function Attrs: mustprogress nounwind uwtable
define linkonce_odr hidden noundef ptr @_ZN4llvm25SmallVectorTemplateCommonINS_2gi7PatFrag11AlternativeEvE5beginEv(ptr noundef nonnull align 8 dereferenceable(16) %0) #0 comdat align 2 {
  %2 = alloca ptr, align 8
  store ptr %0, ptr %2, align 8
  %3 = load ptr, ptr %2, align 8
  %4 = getelementptr inbounds nuw %"class.llvm::SmallVectorBase", ptr %3, i32 0, i32 0
  %5 = load ptr, ptr %4, align 8
  ret ptr %5
}

; Function Attrs: mustprogress nounwind uwtable
define dso_local noundef zeroext i1 @_ZN4llvm2gi7PatFrag19buildOperandsTablesEv(ptr noundef nonnull align 8 dereferenceable(288) %0) #0 align 2 {
  %2 = alloca i1, align 1
  %3 = alloca ptr, align 8
  %4 = alloca i32, align 4
  %5 = alloca %class.anon.157, align 8
  %6 = alloca ptr, align 8
  %7 = alloca ptr, align 8
  %8 = alloca ptr, align 8
  %9 = alloca ptr, align 8
  %10 = alloca ptr, align 8
  %11 = alloca ptr, align 8
  %12 = alloca ptr, align 8
  %13 = alloca ptr, align 8
  %14 = alloca ptr, align 8
  %15 = alloca %"class.llvm::function_ref.64", align 8
  store ptr %0, ptr %3, align 8
  %16 = load ptr, ptr %3, align 8
  store i32 0, ptr %4, align 4
  %17 = getelementptr inbounds nuw %class.anon.157, ptr %5, i32 0, i32 0
  store ptr %16, ptr %17, align 8
  %18 = getelementptr inbounds nuw %class.anon.157, ptr %5, i32 0, i32 1
  store ptr %4, ptr %18, align 8
  %19 = getelementptr inbounds nuw %"class.llvm::gi::PatFrag", ptr %16, i32 0, i32 3
  store ptr %19, ptr %6, align 8
  %20 = load ptr, ptr %6, align 8
  %21 = call noundef ptr @_ZN4llvm25SmallVectorTemplateCommonINS_2gi7PatFrag11AlternativeEvE5beginEv(ptr noundef nonnull align 8 dereferenceable(16) %20)
  store ptr %21, ptr %7, align 8
  %22 = load ptr, ptr %6, align 8
  %23 = call noundef ptr @_ZN4llvm25SmallVectorTemplateCommonINS_2gi7PatFrag11AlternativeEvE3endEv(ptr noundef nonnull align 8 dereferenceable(16) %22)
  store ptr %23, ptr %8, align 8
  br label %24

24:                                               ; preds = %65, %1
  %25 = load ptr, ptr %7, align 8
  %26 = load ptr, ptr %8, align 8
  %27 = icmp ne ptr %25, %26
  br i1 %27, label %28, label %68

28:                                               ; preds = %24
  %29 = load ptr, ptr %7, align 8
  store ptr %29, ptr %9, align 8
  %30 = load ptr, ptr %9, align 8
  %31 = getelementptr inbounds nuw %"struct.llvm::gi::PatFrag::Alternative", ptr %30, i32 0, i32 1
  store ptr %31, ptr %10, align 8
  %32 = load ptr, ptr %10, align 8
  %33 = call noundef ptr @_ZN4llvm25SmallVectorTemplateCommonISt10unique_ptrINS_2gi7PatternESt14default_deleteIS3_EEvE5beginEv(ptr noundef nonnull align 8 dereferenceable(16) %32)
  store ptr %33, ptr %11, align 8
  %34 = load ptr, ptr %10, align 8
  %35 = call noundef ptr @_ZN4llvm25SmallVectorTemplateCommonISt10unique_ptrINS_2gi7PatternESt14default_deleteIS3_EEvE3endEv(ptr noundef nonnull align 8 dereferenceable(16) %34)
  store ptr %35, ptr %12, align 8
  br label %36

36:                                               ; preds = %59, %28
  %37 = load ptr, ptr %11, align 8
  %38 = load ptr, ptr %12, align 8
  %39 = icmp ne ptr %37, %38
  br i1 %39, label %40, label %62

40:                                               ; preds = %36
  %41 = load ptr, ptr %11, align 8
  store ptr %41, ptr %13, align 8
  %42 = load ptr, ptr %13, align 8
  %43 = call noundef ptr @_ZNKSt10unique_ptrIN4llvm2gi7PatternESt14default_deleteIS2_EE3getEv(ptr noundef nonnull align 8 dereferenceable(8) %42) #10
  %44 = call noundef ptr @_ZN4llvm8dyn_castINS_2gi18InstructionPatternENS1_7PatternEEEDcPT0_(ptr noundef %43)
  store ptr %44, ptr %14, align 8
  %45 = load ptr, ptr %14, align 8
  %46 = icmp ne ptr %45, null
  br i1 %46, label %48, label %47

47:                                               ; preds = %40
  br label %59

48:                                               ; preds = %40
  %49 = load ptr, ptr %9, align 8
  %50 = getelementptr inbounds nuw %"struct.llvm::gi::PatFrag::Alternative", ptr %49, i32 0, i32 0
  %51 = load ptr, ptr %14, align 8
  call void @"_ZN4llvm12function_refIFvNS_9StringRefEEEC2IRKZNS_2gi7PatFrag19buildOperandsTablesEvE3$_0EEOT_PNSt9enable_ifIXntsr3std7is_sameINS_12remove_cvrefISA_E4typeES3_EE5valueEvE4typeEPNSC_IXooL_ZNSt17integral_constantIbLb1EE5valueEEsr3std14is_convertibleIDTclclsr3stdE7declvalISA_EEclL_ZSt7declvalIS1_EDTcl9__declvalISA_ELi0EEEvEEEEvEE5valueEvE4typeE"(ptr noundef nonnull align 8 dereferenceable(16) %15, ptr noundef nonnull align 8 dereferenceable(16) %5, ptr noundef null, ptr noundef null)
  %52 = getelementptr inbounds nuw { ptr, i64 }, ptr %15, i32 0, i32 0
  %53 = load ptr, ptr %52, align 8
  %54 = getelementptr inbounds nuw { ptr, i64 }, ptr %15, i32 0, i32 1
  %55 = load i64, ptr %54, align 8
  %56 = call noundef zeroext i1 @_ZN4llvm2gi12OperandTable10addPatternEPNS0_18InstructionPatternENS_12function_refIFvNS_9StringRefEEEE(ptr noundef nonnull align 8 dereferenceable(24) %50, ptr noundef %51, ptr %53, i64 %55)
  br i1 %56, label %58, label %57

57:                                               ; preds = %48
  store i1 false, ptr %2, align 1
  br label %69

58:                                               ; preds = %48
  br label %59

59:                                               ; preds = %58, %47
  %60 = load ptr, ptr %11, align 8
  %61 = getelementptr inbounds %"class.std::unique_ptr.144", ptr %60, i32 1
  store ptr %61, ptr %11, align 8
  br label %36

62:                                               ; preds = %36
  %63 = load i32, ptr %4, align 4
  %64 = add i32 %63, 1
  store i32 %64, ptr %4, align 4
  br label %65

65:                                               ; preds = %62
  %66 = load ptr, ptr %7, align 8
  %67 = getelementptr inbounds %"struct.llvm::gi::PatFrag::Alternative", ptr %66, i32 1
  store ptr %67, ptr %7, align 8
  br label %24

68:                                               ; preds = %24
  store i1 true, ptr %2, align 1
  br label %69

69:                                               ; preds = %68, %57
  %70 = load i1, ptr %2, align 1
  ret i1 %70
}