; Function Attrs: mustprogress nounwind uwtable
define dso_local noundef zeroext i1 @_ZN4llvm2gi7PatFrag19buildOperandsTablesEv(ptr noundef nonnull align 8 dereferenceable(288) %0) local_unnamed_addr #0 align 2 {
  %2 = alloca i32, align 4
  %3 = alloca %class.anon.157, align 8
  store i32 0, ptr %2, align 4
  store ptr %0, ptr %3, align 8
  %4 = getelementptr inbounds nuw i8, ptr %3, i64 8
  store ptr %2, ptr %4, align 8
  %5 = getelementptr inbounds nuw i8, ptr %0, i64 128
  %6 = load ptr, ptr %5, align 8
  %7 = call noundef i64 @_ZNK4llvm15SmallVectorBaseIjE4sizeEv(ptr noundef nonnull align 8 dereferenceable(16) %5) #25
  %8 = getelementptr inbounds %"struct.llvm::gi::PatFrag::Alternative", ptr %6, i64 %7
  %.not30 = icmp eq i64 %7, 0
  br i1 %.not30, label %.loopexit, label %.lr.ph34

.lr.ph34:                                         ; preds = %1
  %9 = ptrtoint ptr %3 to i64
  br label %10

10:                                               ; preds = %.lr.ph34, %._crit_edge
  %.01931 = phi ptr [ %6, %.lr.ph34 ], [ %25, %._crit_edge ]
  %11 = getelementptr inbounds nuw i8, ptr %.01931, i64 24
  %12 = load ptr, ptr %11, align 8
  %13 = call noundef i64 @_ZNK4llvm15SmallVectorBaseIjE4sizeEv(ptr noundef nonnull align 8 dereferenceable(16) %11) #25
  %14 = getelementptr inbounds %"class.std::unique_ptr.144", ptr %12, i64 %13
  %.not2228 = icmp eq i64 %13, 0
  br i1 %.not2228, label %._crit_edge, label %.lr.ph

.lr.ph:                                           ; preds = %10, %21
  %.02029 = phi ptr [ %22, %21 ], [ %12, %10 ]
  %15 = load ptr, ptr %.02029, align 8
  %16 = getelementptr inbounds nuw i8, ptr %15, i64 8
  %17 = load i32, ptr %16, align 8
  %18 = add i32 %17, -5
  %switch.i.i.i.i.i.i.i.i = icmp ult i32 %18, -3
  %.not2324 = icmp eq ptr %15, null
  %.not23 = or i1 %.not2324, %switch.i.i.i.i.i.i.i.i
  br i1 %.not23, label %21, label %19

19:                                               ; preds = %.lr.ph
  %20 = call noundef zeroext i1 @_ZN4llvm2gi12OperandTable10addPatternEPNS0_18InstructionPatternENS_12function_refIFvNS_9StringRefEEEE(ptr noundef nonnull align 8 dereferenceable(24) %.01931, ptr noundef nonnull %15, ptr nonnull @"_ZN4llvm12function_refIFvNS_9StringRefEEE11callback_fnIKZNS_2gi7PatFrag19buildOperandsTablesEvE3$_0EEvlS1_", i64 %9)
  br i1 %20, label %21, label %.loopexit

21:                                               ; preds = %19, %.lr.ph
  %22 = getelementptr inbounds i8, ptr %.02029, i64 8
  %.not22 = icmp eq ptr %22, %14
  br i1 %.not22, label %._crit_edge, label %.lr.ph

._crit_edge:                                      ; preds = %21, %10
  %23 = load i32, ptr %2, align 4
  %24 = add i32 %23, 1
  store i32 %24, ptr %2, align 4
  %25 = getelementptr inbounds i8, ptr %.01931, i64 72
  %.not = icmp eq ptr %25, %8
  br i1 %.not, label %.loopexit, label %10

.loopexit:                                        ; preds = %._crit_edge, %19, %1
  %.not27 = phi i1 [ true, %1 ], [ false, %19 ], [ true, %._crit_edge ]
  ret i1 %.not27
}